; Function Attrs: nounwind uwtable
define internal noundef ptr @readline_get_begidx(ptr noundef %0, ptr readnone captures(none) %1) #0 {
  %3 = tail call ptr @PyModule_GetState(ptr noundef %0) #14
  %4 = getelementptr inbounds nuw i8, ptr %3, i64 32
  %5 = load ptr, ptr %4, align 8, !tbaa !22
  %6 = load i32, ptr %5, align 8, !tbaa !25
  %7 = icmp slt i32 %6, 0
  br i1 %7, label %readline_get_begidx_impl.exit, label %8

8:                                                ; preds = %2
  %9 = add nuw i32 %6, 1
  store i32 %9, ptr %5, align 8, !tbaa !25
  br label %readline_get_begidx_impl.exit

readline_get_begidx_impl.exit:                    ; preds = %2, %8
  ret ptr %5
}